; MGTools.def : Declares the module parameters for the DLL.

LIBRARY      MGTools

EXPORTS
?CreatePalette@CMapGraph@@QAEXXZ
?CreatePalette@CIsolineGraph@@QAEXXZ
??0CIsolineGraph@@QAE@PBD@Z
??0CMapGraph@@QAE@PBD@Z
?classC2DGraph@C2DGraph@@2UCRuntimeClass@@B
?classC3DGraph@C3DGraph@@2UCRuntimeClass@@B
?classCMapGraph@CMapGraph@@2UCRuntimeClass@@B
?classCIsolineGraph@CIsolineGraph@@2UCRuntimeClass@@B
?GetDCRegion@@YAXPAVCDC@@NNAAH1AAN@Z
?GetRunTime@C2DGraph@@SAPAUCRuntimeClass@@XZ
?GetRunTime@C3DGraph@@SAPAUCRuntimeClass@@XZ
?GetRunTime@CMapGraph@@SAPAUCRuntimeClass@@XZ
?GetRunTime@CIsolineGraph@@SAPAUCRuntimeClass@@XZ
?ReadWndPlacement@@YAHPAUtagWINDOWPLACEMENT@@PBD11@Z
?WriteWndPlacement@@YAHPAUtagWINDOWPLACEMENT@@PBD11@Z
?SaveSection@@YAHPBD000@Z
?SavePath@@YAHPBD00@Z
?ReadPath@@YAHPBDPAD0@Z
?ReadSection@@YAHPBD0PAD0@Z
??0SEC3DTabWnd@@QAE@XZ
??1SEC3DTabWnd@@UAE@XZ
??1CModuleVersion@@UAE@XZ

;?GetValue@CModuleVersion@@QAE?AVCString@@PBD@Z
?GetValue@CModuleVersion@@QAE?AV?$CStringT@DV?$StrTraitMFC_DLL@DV?$ChTraitsCRT@D@ATL@@@@@ATL@@PBD@Z

?GetFileVersionInfoA@CModuleVersion@@QAEHPBD@Z
??0CModuleVersion@@QAE@XZ
?GetTabInfo@SECTabWndBase@@QAEHHAAPBDAAHAAPAVCWnd@@AAPAX@Z
?RefreshPicture@C3DGraph@@QAEXXZ
?SetBound@C3DGraph@@QAEXMMMM@Z
?SetGridDrawStatus@C2DGraph@@QAEXHHHH@Z
?SetGridColor@C2DGraph@@QAEXHKKKK@Z

;?SetGrid@C2DGraph@@QAEXHNNNNHHVCString@@0PAVCFont@@II@Z
?SetGrid@C2DGraph@@QAEXHNNNNHHV?$CStringT@DV?$StrTraitMFC_DLL@DV?$ChTraitsCRT@D@ATL@@@@@ATL@@0PAVCFont@@II@Z

?SetLimits@CIsolineGraph@@QAEXHNNNN@Z
?Set3DMatrix@CIsolineGraph@@QAEXPAMHH@Z
?SetRegion@C2DGraph@@QAEXHNNNN@Z
?SetWtoHRatio@C2DGraph@@QAEXN@Z
?SetLimits@CMapGraph@@QAEXHNNNN@Z
?Set3DMatrix@CMapGraph@@QAEXPAMHH@Z
?SetRegionNumber@C2DGraph@@QAEXH@Z
??0SECDib@@QAE@XZ
??0SECDib@@QAE@XZ
??0SECTarga@@QAE@XZ
??0SECTarga@@QAE@XZ
??0SECGif@@QAE@XZ
??0SECGif@@QAE@XZ
??0SECJpeg@@QAE@XZ
??0SECJpeg@@QAE@XZ
_FilterDllMsg@4
_ProcessDllIdle@0
?ConvertImage@SECImage@@QAEHPAV1@@Z
??0SECPcx@@QAE@XZ
??0SECPcx@@QAE@XZ
?StretchDIBits@SECImage@@QAEHPAVCDC@@HHHHHHHHPBXPAUtagBITMAPINFO@@IK@Z
?Rotate90@SECImage@@QAEHH@Z
?FlipHorz@SECImage@@QAEHXZ
?FlipVert@SECImage@@QAEHXZ
?RefreshPicture@C2DGraph@@QAEXXZ
?SetLimits@C2DGraph@@QAEXHNNNN@Z
?WriteStringToFile@@YAHPBD0I@Z

;?CreateTMPUniqueFile@@YAHAAVCString@@PBD@Z
?CreateTMPUniqueFile@@YAHAAV?$CStringT@DV?$StrTraitMFC_DLL@DV?$ChTraitsCRT@D@ATL@@@@@ATL@@PBD@Z

??0CSplash@@QAE@IIGPAPAV0@@Z
?FillLogoInDC@@YAXAAVCBitmap@@PAVCDC@@VCRect@@@Z
??4CDRect@@QAEAAV0@ABV0@@Z
??0CDRect@@QAE@NNNN@Z
??0CDPoint@@QAE@XZ
?BottomRight@CDRect@@QAE?AVCDPoint@@XZ
?TopLeft@CDRect@@QAE?AVCDPoint@@XZ
??4CDPoint@@QAEAAV0@ABV0@@Z
??0CDRect@@QAE@XZ
?Height@CDRect@@QAENXZ
?Width@CDRect@@QAENXZ
??8CDRect@@QBEHABV0@@Z
?MakeLoopMessage@@YAXXZ
??0CDPoint@@QAE@NN@Z
??8CDPoint@@QBEHABV0@@Z
?IsPointInside@CDRect@@QAEHAAVCDPoint@@_N@Z
?NormalizeRect@CDRect@@QAEXXZ
?ContrastImage@SECImage@@QAEXF@Z
?CopyWindowToBitmap@@YAPAUHBITMAP__@@PAUHWND__@@G@Z
?CopyHandle@@YGPAXPAX@Z
?BitmapToDIB@@YAPAUHDIB__@@PAUHBITMAP__@@PAUHPALETTE__@@@Z
?GetSystemPalette@@YAPAUHPALETTE__@@XZ
?CreateFromBitmap@SECImage@@QAEHPAVCDC@@PAVCBitmap@@@Z
?MakeBitmap@SECImage@@QAEPAVCBitmap@@PAVCDC@@@Z
?GetCenter@CDRect@@QAE?AVCDPoint@@_N@Z
?PubPadBits@SECImage@@QAEHXZ
?PubUnPadBits@SECImage@@QAEHXZ
??4CDLine@@QAEAAV0@ABV0@@Z
??0CDLine@@QAE@XZ
??0CDLine@@QAE@VCDPoint@@0@Z
?PubCalcPadding@SECImage@@QAEKKK@Z
?PubCalcBytesPerLine@SECImage@@QAEKKK@Z
?PubLastByte@SECImage@@QAEKKK@Z
?CopyImage@SECImage@@QAEHPAV1@@Z
?GetActiveTab@SECTabWndBase@@QAEHAAH@Z
?GetW@CDLine@@QAENXZ
?GetH@CDLine@@QAENXZ
?GetD@CDLine@@QAENXZ
?GetA@CDLine@@QAENXZ
?Init@CDLine@@QAEXXZ
?SetLevelsRange@CIsolineGraph@@QAEXNN@Z
?SetLevelsCount@CIsolineGraph@@QAEXH@Z
?AddLine@C2DGraph@@QAEXHKHHPAN0PBD1@Z
?RestoreLevelsRange@CIsolineGraph@@QAEXXZ
??1CMatrixSection@@QAE@XZ
?GetSymmetricSection@CMatrixSection@@QAE_NNHPAN0@Z
?SetMatrix@CMatrixSection@@QAEXPAMHH@Z
??0CMatrixSection@@QAE@XZ
?SetLimits@CMatrixSection@@QAEXNNNN@Z
?RemoveAllLines@C2DGraph@@QAEXH@Z
??0SECTiff@@QAE@XZ
?AddDrawLimits@CMapGraph@@QAEXHVCDRect@@HNH@Z
?AddDrawLimits@CIsolineGraph@@QAEXHVCDRect@@HNH@Z
?RemoveAllDrawLimits@C2DGraph@@QAEXXZ
?SaveDIB@@YGHPAUHDIB__@@AAVCFile@@@Z
?CheckLastError@@YAXXZ
?MakeBitmap@SECImage@@QAEPAVCBitmap@@PAVCDC@@PBD@Z
?Crop@SECImage@@QAEHJJJJ@Z
?CopyHandle32@@YAPAXPBXK@Z
?IsFileExist@@YAHPBDH@Z
?EnableTab@SEC3DTabWnd@@QAEXHH@Z
?IsTabEnabled@SEC3DTabWnd@@QAEHH@Z
?RefreshPicture@CIsolineGraph@@QAEXH@Z
?RefreshPicture@CMapGraph@@QAEXH@Z
??0C2DGraph@@QAE@PBD@Z
?InflateRect@CDRect@@QAEXNN@Z
??0C3DGraph@@QAE@PBD@Z
?dwGetWidth@SECImage@@QAEKXZ
?dwGetHeight@SECImage@@QAEKXZ
??1SECDib@@UAE@XZ
?LoadImageA@SECImage@@UAEHPBD@Z
?AddDrawLimits@CMapGraph@@QAEXHAAV?$CArray@VCDPolyLine@@V1@@@@Z
?AddDrawLimits@CIsolineGraph@@QAEXHAAV?$CArray@VCDPolyLine@@V1@@@@Z
??0CDPolyLine@@QAE@XZ
?GetClientRect@C2DGraph@@QAEXAAVCRect@@@Z
?IsBookMarkPrinted@CBookMarkDlg@@UAEHXZ
?PrintBookMark@CBookMarkDlg@@UAEHXZ
?DoShow@CBookMarkDlg@@UAEXXZ
?OnOK@CBookMarkDlg@@UAEXXZ
??0CBookMarkDlg@@QAE@IPAVCWnd@@@Z
??0CBookMarkControl@@QAE@XZ
??1CBookMarkControl@@UAE@XZ
?Init@CBookMarkControl@@QAEXXZ

;?AddPage@CBookMarkControl@@QAEHPAVCBookMarkDlg@@IVCString@@@Z
?AddPage@CBookMarkControl@@QAEHPAVCBookMarkDlg@@IV?$CStringT@DV?$StrTraitMFC_DLL@DV?$ChTraitsCRT@D@ATL@@@@@ATL@@@Z

?GetTabCount@SECTabWndBase@@QAEHXZ
?Set3DMatrix@C3DGraph@@QAEHPAMHH@Z
?Enable@CBookMarkDlg@@QAEXH@Z
?Enable@CBookMarkControl@@QAEXHH@Z
?ChangeBookMark@CBookMarkControl@@QAEXH@Z
??0CDPoint@@QAE@VCPoint@@@Z
??1CDPolygon@@QAE@XZ
??0CDPolygon@@QAE@XZ
?SetLangType@C2DGraph@@QAEXH@Z
?SetPathForSave@C2DGraph@@QAEXPBD@Z
?Contour@@YAXPANHH00H0P6AXHPAUISO_POINT@@NH@Z@Z
?GetPaletteColor@@YAXPAUHPALETTE__@@HPAMPAH@Z
?CreateColorScalePalette@@YAPAUHPALETTE__@@PAUHDC__@@H@Z
?DtoD@@YANNH_N@Z
?RemoveAllData@C2DGraph@@QAEXXZ
??1COXCoolToolBar@@UAE@XZ
??0COXCoolToolBar@@QAE@XZ
?SetDropDownArrow@COXCoolToolBar@@QAEXH@Z
?SetBitmapIds@COXCoolToolBar@@QAEXPAIH@Z
??1COXStatusBar@@UAE@XZ
??0COXStatusBar@@QAE@XZ
?SetIndicators@COXStatusBar@@QAEHPBIH@Z
?SetPaneInfo@COXStatusBar@@QAEXHIIH@Z
?SetPaneText@COXStatusBar@@QAEHHPBDKH@Z
?SetBackColor@C3DGraph@@QAEXK@Z
?GetRegion@C2DGraph@@QAE?AVCRect@@H@Z
??1CColorPalette@@QAE@XZ
??0CColorPalette@@QAE@XZ
?GetColor@CColorPalette@@QAEKE@Z
?RemoveAllEllipses@C2DGraph@@QAEXH@Z
?AddEllipse@C2DGraph@@QAEXHKHNNNNPBD0@Z
??1SECFileSystem@@UAE@XZ

;?MakeDirectory@SECFileSystem@@QAEHABVCString@@@Z
?MakeDirectory@SECFileSystem@@QAEHABV?$CStringT@DV?$StrTraitMFC_DLL@DV?$ChTraitsCRT@D@ATL@@@@@ATL@@@Z

??0SECFileSystem@@QAE@XZ

;?CopyFiles@SECFileSystem@@QAEHABVCString@@0HK@Z
?CopyFiles@SECFileSystem@@QAEHABV?$CStringT@DV?$StrTraitMFC_DLL@DV?$ChTraitsCRT@D@ATL@@@@@ATL@@0HK@Z

;?DeleteDirectory@SECFileSystem@@QAEHABVCString@@H@Z
?DeleteDirectory@SECFileSystem@@QAEHABV?$CStringT@DV?$StrTraitMFC_DLL@DV?$ChTraitsCRT@D@ATL@@@@@ATL@@H@Z

;?DeleteFiles@SECFileSystem@@QAEHABVCString@@K@Z
?DeleteFiles@SECFileSystem@@QAEHABV?$CStringT@DV?$StrTraitMFC_DLL@DV?$ChTraitsCRT@D@ATL@@@@@ATL@@K@Z

;?DirectoryExists@SECFileSystem@@QAEHABVCString@@@Z
?DirectoryExists@SECFileSystem@@QAEHABV?$CStringT@DV?$StrTraitMFC_DLL@DV?$ChTraitsCRT@D@ATL@@@@@ATL@@@Z